; Function Attrs: mustprogress uwtable
define void @_ZN6casadi10HorzRepmatC2ERKNS_2MXEx(ptr noundef nonnull align 8 dereferenceable(72) %0, ptr noundef nonnull align 8 dereferenceable(8) %1, i64 noundef %2) unnamed_addr #3 align 2 personality ptr @__gxx_personality_v0 {
  %4 = alloca %"class.casadi::Sparsity", align 8
  tail call void @_ZN6casadi6MXNodeC2Ev(ptr noundef nonnull align 8 dereferenceable(64) %0)
  store ptr getelementptr inbounds nuw inrange(-16, 888) (i8, ptr @_ZTVN6casadi10HorzRepmatE, i64 16), ptr %0, align 8, !tbaa !3
  %5 = getelementptr inbounds nuw i8, ptr %0, i64 64
  store i64 %2, ptr %5, align 8, !tbaa !6
  invoke void @_ZN6casadi6MXNode7set_depERKNS_2MXE(ptr noundef nonnull align 8 dereferenceable(64) %0, ptr noundef nonnull align 8 dereferenceable(8) %1)
          to label %6 unwind label %13

6:                                                ; preds = %3
  call void @llvm.lifetime.start.p0(i64 8, ptr nonnull %4) #21
  %7 = invoke noundef nonnull align 8 dereferenceable(8) ptr @_ZNK6casadi2MX8sparsityEv(ptr noundef nonnull align 8 dereferenceable(8) %1)
          to label %8 unwind label %15

8:                                                ; preds = %6
  invoke void @_ZN6casadi17SparsityInterfaceINS_8SparsityEE6repmatERKS1_xx(ptr dead_on_unwind nonnull writable sret(%"class.casadi::Sparsity") align 8 %4, ptr noundef nonnull align 8 dereferenceable(8) %7, i64 noundef 1, i64 noundef %2)
          to label %_ZN6casadi6repmatERKNS_8SparsityExx.exit unwind label %15

_ZN6casadi6repmatERKNS_8SparsityExx.exit:         ; preds = %8
  invoke void @_ZN6casadi6MXNode12set_sparsityERKNS_8SparsityE(ptr noundef nonnull align 8 dereferenceable(64) %0, ptr noundef nonnull align 8 dereferenceable(8) %4)
          to label %9 unwind label %17

9:                                                ; preds = %_ZN6casadi6repmatERKNS_8SparsityExx.exit
  invoke void @_ZN6casadi13GenericSharedINS_12SharedObjectENS_20SharedObjectInternalEE10count_downEv(ptr noundef nonnull align 8 dereferenceable(8) %4)
          to label %_ZN6casadi13GenericSharedINS_12SharedObjectENS_20SharedObjectInternalEED2Ev.exit unwind label %10

10:                                               ; preds = %9
  %11 = landingpad { ptr, i32 }
          catch ptr null
  %12 = extractvalue { ptr, i32 } %11, 0
  call void @__clang_call_terminate(ptr %12) #22
  unreachable

_ZN6casadi13GenericSharedINS_12SharedObjectENS_20SharedObjectInternalEED2Ev.exit: ; preds = %9
  call void @llvm.lifetime.end.p0(i64 8, ptr nonnull %4) #21
  ret void

13:                                               ; preds = %3
  %14 = landingpad { ptr, i32 }
          cleanup
  br label %22

15:                                               ; preds = %8, %6
  %16 = landingpad { ptr, i32 }
          cleanup
  br label %_ZN6casadi13GenericSharedINS_12SharedObjectENS_20SharedObjectInternalEED2Ev.exit10

17:                                               ; preds = %_ZN6casadi6repmatERKNS_8SparsityExx.exit
  %18 = landingpad { ptr, i32 }
          cleanup
  invoke void @_ZN6casadi13GenericSharedINS_12SharedObjectENS_20SharedObjectInternalEE10count_downEv(ptr noundef nonnull align 8 dereferenceable(8) %4)
          to label %_ZN6casadi13GenericSharedINS_12SharedObjectENS_20SharedObjectInternalEED2Ev.exit10 unwind label %19

19:                                               ; preds = %17
  %20 = landingpad { ptr, i32 }
          catch ptr null
  %21 = extractvalue { ptr, i32 } %20, 0
  call void @__clang_call_terminate(ptr %21) #22
  unreachable

_ZN6casadi13GenericSharedINS_12SharedObjectENS_20SharedObjectInternalEED2Ev.exit10: ; preds = %17, %15
  %.pn = phi { ptr, i32 } [ %16, %15 ], [ %18, %17 ]
  call void @llvm.lifetime.end.p0(i64 8, ptr nonnull %4) #21
  br label %22

22:                                               ; preds = %_ZN6casadi13GenericSharedINS_12SharedObjectENS_20SharedObjectInternalEED2Ev.exit10, %13
  %.pn.pn = phi { ptr, i32 } [ %.pn, %_ZN6casadi13GenericSharedINS_12SharedObjectENS_20SharedObjectInternalEED2Ev.exit10 ], [ %14, %13 ]
  call void @_ZN6casadi6MXNodeD2Ev(ptr noundef nonnull align 8 dereferenceable(64) %0) #21
  resume { ptr, i32 } %.pn.pn
}